target datalayout = "e-m:e-p270:32:32-p271:32:32-p272:64:64-i64:64-i128:128-f80:128-n8:16:32:64-S128"
target triple = "x86_64-pc-linux-gnu"

%"class.folly::symbolizer::ElfFile" = type { [512 x i8], i32, ptr, i64, %"struct.folly::symbolizer::ElfFileId", i64 }
%"struct.folly::symbolizer::ElfFileId" = type { i64, i64, i64, i64 }
%"struct.folly::symbolizer::ElfFile::OpenResult" = type { i32, ptr }
%"class.folly::symbolizer::ElfFile::Options" = type { i8 }
%"class.folly::Range" = type { ptr, ptr }
%struct.Elf64_Shdr = type { i32, i32, i64, i64, i64, i64, i32, i32, i64, i64 }

@.str.11 = private unnamed_addr constant [15 x i8] c".gnu_debuglink\00", align 1

; Function Attrs: mustprogress nounwind uwtable
define linkonce_odr void @_ZN5folly5RangeIPKcEC2ES2_m(ptr noundef nonnull align 8 dereferenceable(16) %0, ptr noundef %1, i64 noundef %2) unnamed_addr #0 comdat align 2 {
  %4 = alloca ptr, align 8
  %5 = alloca ptr, align 8
  %6 = alloca i64, align 8
  store ptr %0, ptr %4, align 8, !tbaa !133
  store ptr %1, ptr %5, align 8, !tbaa !22
  store i64 %2, ptr %6, align 8, !tbaa !37
  %7 = load ptr, ptr %4, align 8
  %8 = getelementptr inbounds nuw %"class.folly::Range", ptr %7, i32 0, i32 0
  %9 = load ptr, ptr %5, align 8, !tbaa !22
  store ptr %9, ptr %8, align 8, !tbaa !135
  %10 = getelementptr inbounds nuw %"class.folly::Range", ptr %7, i32 0, i32 1
  %11 = load ptr, ptr %5, align 8, !tbaa !22
  %12 = load i64, ptr %6, align 8, !tbaa !37
  %13 = getelementptr inbounds nuw i8, ptr %11, i64 %12
  store ptr %13, ptr %10, align 8, !tbaa !145
  ret void
}

; Function Attrs: mustprogress nounwind uwtable
define void @_ZN5folly10symbolizer7ElfFile5resetEv(ptr noundef nonnull align 8 dereferenceable(576) %0) #0 align 2 personality ptr @__gxx_personality_v0 {
  %2 = alloca ptr, align 8
  %3 = alloca %"struct.folly::symbolizer::ElfFileId", align 8
  store ptr %0, ptr %2, align 8, !tbaa !7
  %4 = load ptr, ptr %2, align 8
  %5 = getelementptr inbounds nuw %"class.folly::symbolizer::ElfFile", ptr %4, i32 0, i32 0
  %6 = getelementptr inbounds [512 x i8], ptr %5, i64 0, i64 0
  store i8 0, ptr %6, align 8, !tbaa !12
  %7 = getelementptr inbounds nuw %"class.folly::symbolizer::ElfFile", ptr %4, i32 0, i32 2
  %8 = load ptr, ptr %7, align 8, !tbaa !19
  %9 = icmp ne ptr %8, inttoptr (i64 -1 to ptr)
  br i1 %9, label %10, label %17

10:                                               ; preds = %1
  %11 = getelementptr inbounds nuw %"class.folly::symbolizer::ElfFile", ptr %4, i32 0, i32 2
  %12 = load ptr, ptr %11, align 8, !tbaa !19
  %13 = getelementptr inbounds nuw %"class.folly::symbolizer::ElfFile", ptr %4, i32 0, i32 3
  %14 = load i64, ptr %13, align 8, !tbaa !20
  %15 = call i32 @munmap(ptr noundef %12, i64 noundef %14) #24
  %16 = getelementptr inbounds nuw %"class.folly::symbolizer::ElfFile", ptr %4, i32 0, i32 2
  store ptr inttoptr (i64 -1 to ptr), ptr %16, align 8, !tbaa !19
  br label %17

17:                                               ; preds = %10, %1
  %18 = getelementptr inbounds nuw %"class.folly::symbolizer::ElfFile", ptr %4, i32 0, i32 1
  %19 = load i32, ptr %18, align 8, !tbaa !13
  %20 = icmp ne i32 %19, -1
  br i1 %20, label %21, label %27

21:                                               ; preds = %17
  %22 = getelementptr inbounds nuw %"class.folly::symbolizer::ElfFile", ptr %4, i32 0, i32 1
  %23 = load i32, ptr %22, align 8, !tbaa !13
  %24 = invoke i32 @close(i32 noundef %23)
          to label %25 unwind label %29

25:                                               ; preds = %21
  %26 = getelementptr inbounds nuw %"class.folly::symbolizer::ElfFile", ptr %4, i32 0, i32 1
  store i32 -1, ptr %26, align 8, !tbaa !13
  br label %27

27:                                               ; preds = %25, %17
  call void @llvm.lifetime.start.p0(i64 32, ptr %3) #24
  call void @llvm.memset.p0.i64(ptr align 8 %3, i8 0, i64 32, i1 false)
  %28 = getelementptr inbounds nuw %"class.folly::symbolizer::ElfFile", ptr %4, i32 0, i32 4
  call void @llvm.memcpy.p0.p0.i64(ptr align 8 %28, ptr align 8 %3, i64 32, i1 false), !tbaa.struct !45
  call void @llvm.lifetime.end.p0(i64 32, ptr %3) #24
  ret void

29:                                               ; preds = %21
  %30 = landingpad { ptr, i32 }
          catch ptr null
  %31 = extractvalue { ptr, i32 } %30, 0
  call void @__clang_call_terminate(ptr %31) #26
  unreachable
}

; Function Attrs: mustprogress nounwind uwtable
define linkonce_odr noundef ptr @_ZNK5folly5RangeIPKcE5beginEv(ptr noundef nonnull align 8 dereferenceable(16) %0) #0 comdat align 2 {
  %2 = alloca ptr, align 8
  store ptr %0, ptr %2, align 8, !tbaa !133
  %3 = load ptr, ptr %2, align 8
  %4 = getelementptr inbounds nuw %"class.folly::Range", ptr %3, i32 0, i32 0
  %5 = load ptr, ptr %4, align 8, !tbaa !135
  ret ptr %5
}

; Function Attrs: mustprogress nounwind uwtable
define { ptr, ptr } @_ZNK5folly10symbolizer7ElfFile14getSectionBodyERK10Elf64_Shdr(ptr noundef nonnull align 8 dereferenceable(576) %0, ptr noundef nonnull align 8 dereferenceable(64) %1) #0 align 2 personality ptr @__gxx_personality_v0 {
  %3 = alloca %"class.folly::Range", align 8
  %4 = alloca ptr, align 8
  %5 = alloca ptr, align 8
  store ptr %0, ptr %4, align 8, !tbaa !7
  store ptr %1, ptr %5, align 8, !tbaa !51
  %6 = load ptr, ptr %4, align 8
  %7 = getelementptr inbounds nuw %"class.folly::symbolizer::ElfFile", ptr %6, i32 0, i32 2
  %8 = load ptr, ptr %7, align 8, !tbaa !19
  %9 = load ptr, ptr %5, align 8, !tbaa !51
  %10 = getelementptr inbounds nuw %struct.Elf64_Shdr, ptr %9, i32 0, i32 4
  %11 = load i64, ptr %10, align 8, !tbaa !130
  %12 = getelementptr inbounds nuw i8, ptr %8, i64 %11
  %13 = load ptr, ptr %5, align 8, !tbaa !51
  %14 = getelementptr inbounds nuw %struct.Elf64_Shdr, ptr %13, i32 0, i32 5
  %15 = load i64, ptr %14, align 8, !tbaa !132
  invoke void @_ZN5folly5RangeIPKcEC2ES2_m(ptr noundef nonnull align 8 dereferenceable(16) %3, ptr noundef %12, i64 noundef %15)
          to label %16 unwind label %18

16:                                               ; preds = %2
  %17 = load { ptr, ptr }, ptr %3, align 8
  ret { ptr, ptr } %17

18:                                               ; preds = %2
  %19 = landingpad { ptr, i32 }
          catch ptr null
  %20 = extractvalue { ptr, i32 } %19, 0
  call void @__clang_call_terminate(ptr %20) #26
  unreachable
}

; Function Attrs: mustprogress nounwind uwtable
define linkonce_odr noundef i32 @_ZNK5folly10symbolizer7ElfFile10OpenResultcvNS1_14OpenResultCodeEEv(ptr noundef nonnull align 8 dereferenceable(16) %0) #0 comdat align 2 {
  %2 = alloca ptr, align 8
  store ptr %0, ptr %2, align 8, !tbaa !47
  %3 = load ptr, ptr %2, align 8
  %4 = getelementptr inbounds nuw %"struct.folly::symbolizer::ElfFile::OpenResult", ptr %3, i32 0, i32 0
  %5 = load i32, ptr %4, align 8, !tbaa !31
  ret i32 %5
}

; Function Attrs: mustprogress nounwind uwtable
define linkonce_odr noundef zeroext i1 @_ZNK5folly10symbolizer7ElfFile7Options8writableEv(ptr noundef nonnull align 1 dereferenceable(1) %0) #0 comdat align 2 {
  %2 = alloca ptr, align 8
  store ptr %0, ptr %2, align 8, !tbaa !23
  %3 = load ptr, ptr %2, align 8
  %4 = getelementptr inbounds nuw %"class.folly::symbolizer::ElfFile::Options", ptr %3, i32 0, i32 0
  %5 = load i8, ptr %4, align 1, !tbaa !109, !range !74, !noundef !75
  %6 = trunc i8 %5 to i1
  ret i1 %6
}

; Function Attrs: mustprogress nounwind uwtable
define { i32, ptr } @_ZN5folly10symbolizer7ElfFile13openAndFollowEPKcRKNS1_7OptionsE(ptr noundef nonnull align 8 dereferenceable(576) %0, ptr noundef %1, ptr noundef nonnull align 1 dereferenceable(1) %2) #0 align 2 personality ptr @__gxx_personality_v0 {
  %4 = alloca %"struct.folly::symbolizer::ElfFile::OpenResult", align 8
  %5 = alloca ptr, align 8
  %6 = alloca ptr, align 8
  %7 = alloca ptr, align 8
  %8 = alloca %"struct.folly::symbolizer::ElfFile::OpenResult", align 8
  %9 = alloca i32, align 4
  %10 = alloca ptr, align 8
  %11 = alloca i64, align 8
  %12 = alloca ptr, align 8
  %13 = alloca %"class.folly::Range", align 8
  %14 = alloca i64, align 8
  %15 = alloca [4096 x i8], align 16
  %16 = alloca %"struct.folly::symbolizer::ElfFile::OpenResult", align 8
  store ptr %0, ptr %5, align 8, !tbaa !7
  store ptr %1, ptr %6, align 8, !tbaa !22
  store ptr %2, ptr %7, align 8, !tbaa !23
  %17 = load ptr, ptr %5, align 8
  call void @llvm.lifetime.start.p0(i64 16, ptr %8) #24
  %18 = load ptr, ptr %6, align 8, !tbaa !22
  %19 = load ptr, ptr %7, align 8, !tbaa !23
  %20 = call { i32, ptr } @_ZN5folly10symbolizer7ElfFile11openNoThrowEPKcRKNS1_7OptionsE(ptr noundef nonnull align 8 dereferenceable(576) %17, ptr noundef %18, ptr noundef nonnull align 1 dereferenceable(1) %19) #24
  %21 = getelementptr inbounds nuw { i32, ptr }, ptr %8, i32 0, i32 0
  %22 = extractvalue { i32, ptr } %20, 0
  store i32 %22, ptr %21, align 8
  %23 = getelementptr inbounds nuw { i32, ptr }, ptr %8, i32 0, i32 1
  %24 = extractvalue { i32, ptr } %20, 1
  store ptr %24, ptr %23, align 8
  %25 = load ptr, ptr %7, align 8, !tbaa !23
  %26 = call noundef zeroext i1 @_ZNK5folly10symbolizer7ElfFile7Options8writableEv(ptr noundef nonnull align 1 dereferenceable(1) %25) #24
  br i1 %26, label %30, label %27

27:                                               ; preds = %3
  %28 = call noundef i32 @_ZNK5folly10symbolizer7ElfFile10OpenResultcvNS1_14OpenResultCodeEEv(ptr noundef nonnull align 8 dereferenceable(16) %8) #24
  %29 = icmp ne i32 %28, 0
  br i1 %29, label %30, label %31

30:                                               ; preds = %27, %3
  call void @llvm.memcpy.p0.p0.i64(ptr align 8 %4, ptr align 8 %8, i64 16, i1 false), !tbaa.struct !46
  store i32 1, ptr %9, align 4
  br label %97

31:                                               ; preds = %27
  call void @llvm.lifetime.start.p0(i64 8, ptr %10) #24
  %32 = load ptr, ptr %6, align 8, !tbaa !22
  %33 = call noundef ptr @strrchr(ptr noundef %32, i32 noundef 47) #31
  store ptr %33, ptr %10, align 8, !tbaa !22
  call void @llvm.lifetime.start.p0(i64 8, ptr %11) #24
  %34 = load ptr, ptr %10, align 8, !tbaa !22
  %35 = icmp ne ptr %34, null
  br i1 %35, label %36, label %43

36:                                               ; preds = %31
  %37 = load ptr, ptr %10, align 8, !tbaa !22
  %38 = getelementptr inbounds i8, ptr %37, i64 1
  %39 = load ptr, ptr %6, align 8, !tbaa !22
  %40 = ptrtoint ptr %38 to i64
  %41 = ptrtoint ptr %39 to i64
  %42 = sub i64 %40, %41
  br label %44

43:                                               ; preds = %31
  br label %44

44:                                               ; preds = %43, %36
  %45 = phi i64 [ %42, %36 ], [ 0, %43 ]
  store i64 %45, ptr %11, align 8, !tbaa !37
  call void @llvm.lifetime.start.p0(i64 8, ptr %12) #24
  %46 = call noundef ptr @_ZNK5folly10symbolizer7ElfFile16getSectionByNameEPKc(ptr noundef nonnull align 8 dereferenceable(576) %17, ptr noundef @.str.11) #24
  store ptr %46, ptr %12, align 8, !tbaa !51
  %47 = load ptr, ptr %12, align 8, !tbaa !51
  %48 = icmp ne ptr %47, null
  br i1 %48, label %50, label %49

49:                                               ; preds = %44
  call void @llvm.memcpy.p0.p0.i64(ptr align 8 %4, ptr align 8 %8, i64 16, i1 false), !tbaa.struct !46
  store i32 1, ptr %9, align 4
  br label %96

50:                                               ; preds = %44
  call void @llvm.lifetime.start.p0(i64 16, ptr %13) #24
  %51 = load ptr, ptr %12, align 8, !tbaa !51
  %52 = call { ptr, ptr } @_ZNK5folly10symbolizer7ElfFile14getSectionBodyERK10Elf64_Shdr(ptr noundef nonnull align 8 dereferenceable(576) %17, ptr noundef nonnull align 8 dereferenceable(64) %51) #24
  %53 = getelementptr inbounds nuw { ptr, ptr }, ptr %13, i32 0, i32 0
  %54 = extractvalue { ptr, ptr } %52, 0
  store ptr %54, ptr %53, align 8
  %55 = getelementptr inbounds nuw { ptr, ptr }, ptr %13, i32 0, i32 1
  %56 = extractvalue { ptr, ptr } %52, 1
  store ptr %56, ptr %55, align 8
  call void @llvm.lifetime.start.p0(i64 8, ptr %14) #24
  %57 = invoke noundef ptr @_ZNK5folly5RangeIPKcE5beginEv(ptr noundef nonnull align 8 dereferenceable(16) %13)
          to label %58 unwind label %99

58:                                               ; preds = %50
  %59 = call i64 @strlen(ptr noundef %57) #31
  store i64 %59, ptr %14, align 8, !tbaa !37
  %60 = load i64, ptr %11, align 8, !tbaa !37
  %61 = load i64, ptr %14, align 8, !tbaa !37
  %62 = add i64 %60, %61
  %63 = icmp uge i64 %62, 4096
  br i1 %63, label %64, label %65

64:                                               ; preds = %58
  call void @llvm.memcpy.p0.p0.i64(ptr align 8 %4, ptr align 8 %8, i64 16, i1 false), !tbaa.struct !46
  store i32 1, ptr %9, align 4
  br label %95

65:                                               ; preds = %58
  call void @llvm.lifetime.start.p0(i64 4096, ptr %15) #24
  %66 = getelementptr inbounds [4096 x i8], ptr %15, i64 0, i64 0
  %67 = load ptr, ptr %6, align 8, !tbaa !22
  %68 = load i64, ptr %11, align 8, !tbaa !37
  call void @llvm.memcpy.p0.p0.i64(ptr align 16 %66, ptr align 1 %67, i64 %68, i1 false)
  %69 = getelementptr inbounds [4096 x i8], ptr %15, i64 0, i64 0
  %70 = load i64, ptr %11, align 8, !tbaa !37
  %71 = getelementptr inbounds i8, ptr %69, i64 %70
  %72 = invoke noundef ptr @_ZNK5folly5RangeIPKcE5beginEv(ptr noundef nonnull align 8 dereferenceable(16) %13)
          to label %73 unwind label %99

73:                                               ; preds = %65
  %74 = load i64, ptr %14, align 8, !tbaa !37
  %75 = add i64 %74, 1
  call void @llvm.memcpy.p0.p0.i64(ptr align 1 %71, ptr align 1 %72, i64 %75, i1 false)
  call void @_ZN5folly10symbolizer7ElfFile5resetEv(ptr noundef nonnull align 8 dereferenceable(576) %17) #24
  call void @llvm.lifetime.start.p0(i64 16, ptr %16) #24
  %76 = getelementptr inbounds [4096 x i8], ptr %15, i64 0, i64 0
  %77 = load ptr, ptr %7, align 8, !tbaa !23
  %78 = call { i32, ptr } @_ZN5folly10symbolizer7ElfFile11openNoThrowEPKcRKNS1_7OptionsE(ptr noundef nonnull align 8 dereferenceable(576) %17, ptr noundef %76, ptr noundef nonnull align 1 dereferenceable(1) %77) #24
  %79 = getelementptr inbounds nuw { i32, ptr }, ptr %16, i32 0, i32 0
  %80 = extractvalue { i32, ptr } %78, 0
  store i32 %80, ptr %79, align 8
  %81 = getelementptr inbounds nuw { i32, ptr }, ptr %16, i32 0, i32 1
  %82 = extractvalue { i32, ptr } %78, 1
  store ptr %82, ptr %81, align 8
  call void @llvm.memcpy.p0.p0.i64(ptr align 8 %8, ptr align 8 %16, i64 16, i1 false), !tbaa.struct !46
  call void @llvm.lifetime.end.p0(i64 16, ptr %16) #24
  %83 = call noundef i32 @_ZNK5folly10symbolizer7ElfFile10OpenResultcvNS1_14OpenResultCodeEEv(ptr noundef nonnull align 8 dereferenceable(16) %8) #24
  %84 = icmp eq i32 %83, 0
  br i1 %84, label %85, label %86

85:                                               ; preds = %73
  call void @llvm.memcpy.p0.p0.i64(ptr align 8 %4, ptr align 8 %8, i64 16, i1 false), !tbaa.struct !46
  store i32 1, ptr %9, align 4
  br label %94

86:                                               ; preds = %73
  %87 = load ptr, ptr %6, align 8, !tbaa !22
  %88 = load ptr, ptr %7, align 8, !tbaa !23
  %89 = call { i32, ptr } @_ZN5folly10symbolizer7ElfFile11openNoThrowEPKcRKNS1_7OptionsE(ptr noundef nonnull align 8 dereferenceable(576) %17, ptr noundef %87, ptr noundef nonnull align 1 dereferenceable(1) %88) #24
  %90 = getelementptr inbounds nuw { i32, ptr }, ptr %4, i32 0, i32 0
  %91 = extractvalue { i32, ptr } %89, 0
  store i32 %91, ptr %90, align 8
  %92 = getelementptr inbounds nuw { i32, ptr }, ptr %4, i32 0, i32 1
  %93 = extractvalue { i32, ptr } %89, 1
  store ptr %93, ptr %92, align 8
  store i32 1, ptr %9, align 4
  br label %94

94:                                               ; preds = %86, %85
  call void @llvm.lifetime.end.p0(i64 4096, ptr %15) #24
  br label %95

95:                                               ; preds = %94, %64
  call void @llvm.lifetime.end.p0(i64 8, ptr %14) #24
  call void @llvm.lifetime.end.p0(i64 16, ptr %13) #24
  br label %96

96:                                               ; preds = %95, %49
  call void @llvm.lifetime.end.p0(i64 8, ptr %12) #24
  call void @llvm.lifetime.end.p0(i64 8, ptr %11) #24
  call void @llvm.lifetime.end.p0(i64 8, ptr %10) #24
  br label %97

97:                                               ; preds = %96, %30
  call void @llvm.lifetime.end.p0(i64 16, ptr %8) #24
  %98 = load { i32, ptr }, ptr %4, align 8
  ret { i32, ptr } %98

99:                                               ; preds = %65, %50
  %100 = landingpad { ptr, i32 }
          catch ptr null
  %101 = extractvalue { ptr, i32 } %100, 0
  call void @__clang_call_terminate(ptr %101) #26
  unreachable
}