; Function Attrs: mustprogress nounwind uwtable
define { i32, ptr } @_ZN5folly10symbolizer7ElfFile13openAndFollowEPKcRKNS1_7OptionsE(ptr noundef nonnull align 8 dereferenceable(576) %0, ptr noundef %1, ptr noundef nonnull readonly align 1 captures(none) dereferenceable(1) %2) local_unnamed_addr #4 align 2 personality ptr @__gxx_personality_v0 {
  %4 = alloca [4096 x i8], align 16
  %5 = tail call { i32, ptr } @_ZN5folly10symbolizer7ElfFile11openNoThrowEPKcRKNS1_7OptionsE(ptr noundef nonnull align 8 dereferenceable(576) %0, ptr noundef %1, ptr noundef nonnull align 1 dereferenceable(1) %2) #27
  %6 = extractvalue { i32, ptr } %5, 0
  %7 = load i8, ptr %2, align 1, !tbaa !26, !range !29, !noundef !30
  %8 = trunc nuw i8 %7 to i1
  %.not = icmp ne i32 %6, 0
  %or.cond.not = select i1 %8, i1 true, i1 %.not
  br i1 %or.cond.not, label %50, label %9

9:                                                ; preds = %3
  %10 = tail call noundef ptr @strrchr(ptr noundef nonnull dereferenceable(1) %1, i32 noundef 47) #33
  %.not36 = icmp eq ptr %10, null
  %11 = getelementptr inbounds nuw i8, ptr %10, i64 1
  %12 = ptrtoint ptr %11 to i64
  %13 = ptrtoint ptr %1 to i64
  %14 = sub i64 %12, %13
  %15 = select i1 %.not36, i64 0, i64 %14
  %16 = tail call noundef ptr @_ZNK5folly10symbolizer7ElfFile16getSectionByNameEPKc(ptr noundef nonnull align 8 dereferenceable(576) %0, ptr noundef nonnull @.str.11) #27
  %.not37 = icmp eq ptr %16, null
  br i1 %.not37, label %50, label %17

17:                                               ; preds = %9
  %18 = getelementptr inbounds nuw i8, ptr %0, i64 520
  %19 = load ptr, ptr %18, align 8, !tbaa !17
  %20 = getelementptr inbounds nuw i8, ptr %16, i64 24
  %21 = load i64, ptr %20, align 8, !tbaa !75
  %22 = getelementptr inbounds nuw i8, ptr %19, i64 %21
  %23 = tail call i64 @strlen(ptr noundef nonnull dereferenceable(1) %22) #33
  %24 = add i64 %23, %15
  %25 = icmp ugt i64 %24, 4095
  br i1 %25, label %50, label %26

26:                                               ; preds = %17
  call void @llvm.lifetime.start.p0(i64 4096, ptr nonnull %4) #27
  call void @llvm.memcpy.p0.p0.i64(ptr nonnull align 16 %4, ptr nonnull align 1 %1, i64 %15, i1 false)
  %27 = getelementptr inbounds i8, ptr %4, i64 %15
  %28 = add i64 %23, 1
  call void @llvm.memcpy.p0.p0.i64(ptr nonnull align 1 %27, ptr nonnull align 1 %22, i64 %28, i1 false)
  store i8 0, ptr %0, align 8, !tbaa !7
  %.not.i = icmp eq ptr %19, inttoptr (i64 -1 to ptr)
  br i1 %.not.i, label %33, label %29

29:                                               ; preds = %26
  %30 = getelementptr inbounds nuw i8, ptr %0, i64 528
  %31 = load i64, ptr %30, align 8, !tbaa !39
  %32 = tail call i32 @munmap(ptr noundef %19, i64 noundef %31) #27
  store ptr inttoptr (i64 -1 to ptr), ptr %18, align 8, !tbaa !17
  br label %33

33:                                               ; preds = %29, %26
  %34 = getelementptr inbounds nuw i8, ptr %0, i64 512
  %35 = load i32, ptr %34, align 8, !tbaa !10
  %.not2.i = icmp eq i32 %35, -1
  br i1 %.not2.i, label %_ZN5folly10symbolizer7ElfFile5resetEv.exit, label %36

36:                                               ; preds = %33
  %37 = invoke i32 @close(i32 noundef %35)
          to label %38 unwind label %39

38:                                               ; preds = %36
  store i32 -1, ptr %34, align 8, !tbaa !10
  br label %_ZN5folly10symbolizer7ElfFile5resetEv.exit

39:                                               ; preds = %36
  %40 = landingpad { ptr, i32 }
          catch ptr null
  %41 = extractvalue { ptr, i32 } %40, 0
  tail call void @__clang_call_terminate(ptr %41) #29
  unreachable

_ZN5folly10symbolizer7ElfFile5resetEv.exit:       ; preds = %33, %38
  %42 = getelementptr inbounds nuw i8, ptr %0, i64 536
  tail call void @llvm.memset.p0.i64(ptr noundef nonnull align 8 dereferenceable(32) %42, i8 0, i64 32, i1 false)
  %43 = call { i32, ptr } @_ZN5folly10symbolizer7ElfFile11openNoThrowEPKcRKNS1_7OptionsE(ptr noundef nonnull align 8 dereferenceable(576) %0, ptr noundef nonnull %4, ptr noundef nonnull align 1 dereferenceable(1) %2) #27
  %44 = extractvalue { i32, ptr } %43, 0
  %45 = icmp eq i32 %44, 0
  br i1 %45, label %49, label %46

46:                                               ; preds = %_ZN5folly10symbolizer7ElfFile5resetEv.exit
  %47 = call { i32, ptr } @_ZN5folly10symbolizer7ElfFile11openNoThrowEPKcRKNS1_7OptionsE(ptr noundef nonnull align 8 dereferenceable(576) %0, ptr noundef nonnull %1, ptr noundef nonnull align 1 dereferenceable(1) %2) #27
  %48 = extractvalue { i32, ptr } %47, 0
  br label %49

49:                                               ; preds = %_ZN5folly10symbolizer7ElfFile5resetEv.exit, %46
  %.sroa.019.3 = phi i32 [ %48, %46 ], [ 0, %_ZN5folly10symbolizer7ElfFile5resetEv.exit ]
  %.pn = phi { i32, ptr } [ %47, %46 ], [ %43, %_ZN5folly10symbolizer7ElfFile5resetEv.exit ]
  call void @llvm.lifetime.end.p0(i64 4096, ptr nonnull %4) #27
  br label %50

50:                                               ; preds = %49, %17, %9, %3
  %.sroa.019.0 = phi i32 [ %6, %3 ], [ 0, %9 ], [ %.sroa.019.3, %49 ], [ 0, %17 ]
  %.pn47 = phi { i32, ptr } [ %5, %3 ], [ %5, %9 ], [ %.pn, %49 ], [ %5, %17 ]
  %.sroa.629.0 = extractvalue { i32, ptr } %.pn47, 1
  %.fca.0.insert = insertvalue { i32, ptr } poison, i32 %.sroa.019.0, 0
  %.fca.1.insert = insertvalue { i32, ptr } %.fca.0.insert, ptr %.sroa.629.0, 1
  ret { i32, ptr } %.fca.1.insert
}